; Function Attrs: mustprogress uwtable
define internal noundef zeroext i1 @_ZN32pxrInternal_v0_24__pxrReserved__L6_IsIntERKNS_7VtValueE(ptr noundef nonnull align 8 dereferenceable(16) %0) #0 personality ptr @__gxx_personality_v0 {
  %2 = getelementptr inbounds nuw i8, ptr %0, i64 8
  %3 = load ptr, ptr %2, align 8
  %4 = ptrtoint ptr %3 to i64
  %.not.i = icmp eq ptr %3, null
  br i1 %.not.i, label %_ZNK32pxrInternal_v0_24__pxrReserved__7VtValue9IsHoldingIiEEbv.exit, label %5

5:                                                ; preds = %1
  %6 = and i64 %4, -8
  %7 = inttoptr i64 %6 to ptr
  %8 = getelementptr inbounds nuw i8, ptr %7, i64 16
  %9 = load i32, ptr %8, align 8
  %10 = icmp eq i32 %9, 5
  br i1 %10, label %_ZNK32pxrInternal_v0_24__pxrReserved__7VtValue9IsHoldingIiEEbv.exit, label %11

11:                                               ; preds = %5
  %12 = and i64 %4, 4
  %.not.i.i = icmp eq i64 %12, 0
  br i1 %.not.i.i, label %_ZNK32pxrInternal_v0_24__pxrReserved__7VtValue9IsHoldingIiEEbv.exit, label %13

13:                                               ; preds = %11
  %14 = tail call noundef zeroext i1 @_ZNK32pxrInternal_v0_24__pxrReserved__7VtValue11_TypeIsImplERKSt9type_info(ptr noundef nonnull align 8 dereferenceable(16) %0, ptr noundef nonnull align 8 dereferenceable(16) @_ZTIi)
  br label %_ZNK32pxrInternal_v0_24__pxrReserved__7VtValue9IsHoldingIiEEbv.exit

_ZNK32pxrInternal_v0_24__pxrReserved__7VtValue9IsHoldingIiEEbv.exit: ; preds = %1, %5, %11, %13
  %15 = phi i1 [ false, %1 ], [ true, %5 ], [ false, %11 ], [ %14, %13 ]
  ret i1 %15
}